target datalayout = "e-m:e-p270:32:32-p271:32:32-p272:64:64-i64:64-i128:128-f80:128-n8:16:32:64-S128"
target triple = "x86_64-pc-linux-gnu"

%struct.timeval = type { i64, i64 }
%struct.ProgressData = type { i32, i64, %struct.timeval, i32, ptr, i64, i32, i32, i32 }
%struct.OperationConfig = type { i8, ptr, ptr, ptr, ptr, ptr, ptr, i8, i8, i8, i64, i8, i8, i8, i8, i8, ptr, i8, ptr, i8, ptr, i64, ptr, %struct.dynbuf, ptr, ptr, i64, i64, i64, i64, ptr, ptr, ptr, ptr, i64, i64, i16, ptr, i64, i64, i64, i64, ptr, ptr, ptr, ptr, ptr, ptr, ptr, ptr, ptr, ptr, ptr, ptr, ptr, ptr, i32, ptr, ptr, ptr, ptr, i8, ptr, i8, i8, i8, i8, i8, i8, i8, i8, i8, i8, i8, i8, i8, i8, ptr, ptr, ptr, ptr, ptr, ptr, i64, ptr, ptr, ptr, ptr, ptr, ptr, ptr, ptr, ptr, ptr, ptr, ptr, ptr, ptr, ptr, ptr, ptr, ptr, ptr, ptr, ptr, ptr, ptr, ptr, ptr, ptr, ptr, ptr, ptr, ptr, i8, ptr, ptr, ptr, ptr, i64, i8, i8, i8, i8, i8, i8, i8, i8, i8, i8, i8, i8, i8, i8, i8, i8, i8, i8, i8, i8, ptr, ptr, ptr, ptr, i64, i64, i64, i64, i64, i32, i64, ptr, ptr, ptr, ptr, ptr, ptr, ptr, ptr, i32, i64, i64, i8, i8, i8, i8, i32, ptr, i8, i64, ptr, ptr, i8, i8, i64, i8, i8, i64, i64, ptr, ptr, i32, i64, i64, i8, i8, i8, i8, i8, i8, i8, i8, i64, i64, i8, i32, i8, i64, i8, i8, i8, i8, i8, i8, i8, i8, i8, ptr, i8, ptr, i8, i8, i8, i64, i8, i8, i8, i64, i8, ptr, i8, ptr, i32, i8, ptr, ptr, ptr, %struct.State, i8, i8, ptr, ptr, ptr }
%struct.dynbuf = type { ptr, i64, i64, i64 }
%struct.State = type { ptr, ptr, ptr, ptr, ptr, ptr, i64, i64, i64, i64 }

@tool_stderr = external global ptr, align 8

; Function Attrs: nounwind uwtable
define internal void @update_width(ptr noundef %0) #0 {
  %2 = alloca ptr, align 8
  %3 = alloca i32, align 4
  store ptr %0, ptr %2, align 8, !tbaa !28
  call void @llvm.lifetime.start.p0(i64 4, ptr %3) #5
  %4 = call i32 @get_terminal_columns()
  store i32 %4, ptr %3, align 4, !tbaa !36
  %5 = load i32, ptr %3, align 4, !tbaa !36
  %6 = icmp sgt i32 %5, 400
  br i1 %6, label %7, label %10

7:                                                ; preds = %1
  %8 = load ptr, ptr %2, align 8, !tbaa !28
  %9 = getelementptr inbounds nuw %struct.ProgressData, ptr %8, i32 0, i32 3
  store i32 400, ptr %9, align 8, !tbaa !35
  br label %21

10:                                               ; preds = %1
  %11 = load i32, ptr %3, align 4, !tbaa !36
  %12 = icmp sgt i32 %11, 20
  br i1 %12, label %13, label %17

13:                                               ; preds = %10
  %14 = load i32, ptr %3, align 4, !tbaa !36
  %15 = load ptr, ptr %2, align 8, !tbaa !28
  %16 = getelementptr inbounds nuw %struct.ProgressData, ptr %15, i32 0, i32 3
  store i32 %14, ptr %16, align 8, !tbaa !35
  br label %20

17:                                               ; preds = %10
  %18 = load ptr, ptr %2, align 8, !tbaa !28
  %19 = getelementptr inbounds nuw %struct.ProgressData, ptr %18, i32 0, i32 3
  store i32 20, ptr %19, align 8, !tbaa !35
  br label %20

20:                                               ; preds = %17, %13
  br label %21

21:                                               ; preds = %20, %7
  call void @llvm.lifetime.end.p0(i64 4, ptr %3) #5
  ret void
}

; Function Attrs: nounwind uwtable
define dso_local void @progressbarinit(ptr noundef %0, ptr noundef %1) #0 {
  %3 = alloca ptr, align 8
  %4 = alloca ptr, align 8
  store ptr %0, ptr %3, align 8, !tbaa !28
  store ptr %1, ptr %4, align 8, !tbaa !27
  %5 = load ptr, ptr %3, align 8, !tbaa !28
  call void @llvm.memset.p0.i64(ptr align 8 %5, i8 0, i64 72, i1 false)
  %6 = load ptr, ptr %4, align 8, !tbaa !27
  %7 = getelementptr inbounds nuw %struct.OperationConfig, ptr %6, i32 0, i32 11
  %8 = load i8, ptr %7, align 8, !tbaa !56, !range !49, !noundef !50
  %9 = trunc i8 %8 to i1
  br i1 %9, label %10, label %16

10:                                               ; preds = %2
  %11 = load ptr, ptr %4, align 8, !tbaa !27
  %12 = getelementptr inbounds nuw %struct.OperationConfig, ptr %11, i32 0, i32 21
  %13 = load i64, ptr %12, align 8, !tbaa !57
  %14 = load ptr, ptr %3, align 8, !tbaa !28
  %15 = getelementptr inbounds nuw %struct.ProgressData, ptr %14, i32 0, i32 5
  store i64 %13, ptr %15, align 8, !tbaa !30
  br label %16

16:                                               ; preds = %10, %2
  %17 = load ptr, ptr %3, align 8, !tbaa !28
  call void @update_width(ptr noundef %17)
  %18 = load ptr, ptr @tool_stderr, align 8, !tbaa !58
  %19 = load ptr, ptr %3, align 8, !tbaa !28
  %20 = getelementptr inbounds nuw %struct.ProgressData, ptr %19, i32 0, i32 4
  store ptr %18, ptr %20, align 8, !tbaa !38
  %21 = load ptr, ptr %3, align 8, !tbaa !28
  %22 = getelementptr inbounds nuw %struct.ProgressData, ptr %21, i32 0, i32 6
  store i32 150, ptr %22, align 8, !tbaa !54
  %23 = load ptr, ptr %3, align 8, !tbaa !28
  %24 = getelementptr inbounds nuw %struct.ProgressData, ptr %23, i32 0, i32 8
  store i32 1, ptr %24, align 8, !tbaa !55
  ret void
}