; Function Attrs: nounwind uwtable
define dso_local void @progressbarinit(ptr noundef writeonly captures(none) initializes((0, 72)) %0, ptr noundef readonly captures(none) %1) local_unnamed_addr #0 {
  tail call void @llvm.memset.p0.i64(ptr noundef nonnull align 8 dereferenceable(72) %0, i8 0, i64 72, i1 false)
  %3 = getelementptr inbounds nuw i8, ptr %1, i64 72
  %4 = load i8, ptr %3, align 8, !tbaa !47, !range !44, !noundef !45
  %5 = trunc nuw i8 %4 to i1
  br i1 %5, label %6, label %10

6:                                                ; preds = %2
  %7 = getelementptr inbounds nuw i8, ptr %1, i64 120
  %8 = load i64, ptr %7, align 8, !tbaa !48
  %9 = getelementptr inbounds nuw i8, ptr %0, i64 48
  store i64 %8, ptr %9, align 8, !tbaa !24
  br label %10

10:                                               ; preds = %6, %2
  %11 = tail call i32 @get_terminal_columns() #7
  %12 = icmp sgt i32 %11, 400
  br i1 %12, label %13, label %15

13:                                               ; preds = %10
  %14 = getelementptr inbounds nuw i8, ptr %0, i64 32
  store i32 400, ptr %14, align 8, !tbaa !27
  br label %update_width.exit

15:                                               ; preds = %10
  %16 = icmp sgt i32 %11, 20
  %17 = getelementptr inbounds nuw i8, ptr %0, i64 32
  br i1 %16, label %18, label %19

18:                                               ; preds = %15
  store i32 %11, ptr %17, align 8, !tbaa !27
  br label %update_width.exit

19:                                               ; preds = %15
  store i32 20, ptr %17, align 8, !tbaa !27
  br label %update_width.exit

update_width.exit:                                ; preds = %13, %18, %19
  %20 = load ptr, ptr @tool_stderr, align 8, !tbaa !49
  %21 = getelementptr inbounds nuw i8, ptr %0, i64 40
  store ptr %20, ptr %21, align 8, !tbaa !32
  %22 = getelementptr inbounds nuw i8, ptr %0, i64 56
  store i32 150, ptr %22, align 8, !tbaa !30
  %23 = getelementptr inbounds nuw i8, ptr %0, i64 64
  store i32 1, ptr %23, align 8, !tbaa !33
  ret void
}